; Function Attrs: nofree nosync nounwind memory(read, inaccessiblemem: none) uwtable
define i64 @Gia_LutComputeTruth6Simple(ptr noundef %0, i32 noundef %1) local_unnamed_addr #0 {
  %3 = getelementptr i8, ptr %0, i64 32
  %.val7 = load ptr, ptr %3, align 8, !tbaa !3
  %4 = getelementptr i8, ptr %0, i64 72
  %.val8 = load ptr, ptr %4, align 8, !tbaa !29
  %5 = getelementptr i8, ptr %.val8, i64 8
  %.val8.val = load ptr, ptr %5, align 8, !tbaa !30
  %6 = sext i32 %1 to i64
  %7 = getelementptr inbounds i32, ptr %.val8.val, i64 %6
  %8 = load i32, ptr %7, align 4, !tbaa !31
  %9 = sext i32 %8 to i64
  %10 = getelementptr inbounds %struct.Gia_Obj_t_, ptr %.val7, i64 %9
  %.val.i = load i64, ptr %10, align 4
  %11 = trunc i64 %.val.i to i32
  %12 = and i32 %11, 536870911
  %13 = sub nsw i32 %8, %12
  %14 = tail call i64 @Gia_LutComputeTruth6Simple_rec(ptr noundef %0, i32 noundef %13)
  %15 = shl i32 %11, 2
  %16 = ashr i32 %15, 31
  %17 = sext i32 %16 to i64
  %18 = xor i64 %14, %17
  ret i64 %18
}